target datalayout = "e-m:e-p270:32:32-p271:32:32-p272:64:64-i64:64-i128:128-f80:128-n8:16:32:64-S128"
target triple = "x86_64-pc-linux-gnu"

@.str.1 = private unnamed_addr constant [3 x i8] c"%d\00", align 1
@.str.2 = private unnamed_addr constant [2 x i8] c"\0A\00", align 1

; Function Attrs: nounwind uwtable
define void @Lpk_TryDec(ptr noundef %0, i32 noundef %1) #0 {
  %3 = alloca ptr, align 8
  %4 = alloca i32, align 4
  store ptr %0, ptr %3, align 8, !tbaa !52
  store i32 %1, ptr %4, align 4, !tbaa !10
  %5 = load ptr, ptr %3, align 8, !tbaa !52
  %6 = getelementptr inbounds i64, ptr %5, i64 0
  %7 = load i64, ptr %6, align 8, !tbaa !54
  %8 = call i64 @If_Dec6Perform(i64 noundef %7, i32 noundef 1)
  %9 = icmp ugt i64 %8, 0
  %10 = zext i1 %9 to i32
  %11 = call i32 (ptr, ...) @printf(ptr noundef @.str.1, i32 noundef %10)
  %12 = load ptr, ptr %3, align 8, !tbaa !52
  %13 = getelementptr inbounds i64, ptr %12, i64 1
  %14 = load i64, ptr %13, align 8, !tbaa !54
  %15 = call i64 @If_Dec6Perform(i64 noundef %14, i32 noundef 1)
  %16 = icmp ugt i64 %15, 0
  %17 = zext i1 %16 to i32
  %18 = call i32 (ptr, ...) @printf(ptr noundef @.str.1, i32 noundef %17)
  %19 = load ptr, ptr %3, align 8, !tbaa !52
  %20 = getelementptr inbounds i64, ptr %19, i64 2
  %21 = load i64, ptr %20, align 8, !tbaa !54
  %22 = call i64 @If_Dec6Perform(i64 noundef %21, i32 noundef 1)
  %23 = icmp ugt i64 %22, 0
  %24 = zext i1 %23 to i32
  %25 = call i32 (ptr, ...) @printf(ptr noundef @.str.1, i32 noundef %24)
  %26 = load ptr, ptr %3, align 8, !tbaa !52
  %27 = getelementptr inbounds i64, ptr %26, i64 3
  %28 = load i64, ptr %27, align 8, !tbaa !54
  %29 = call i64 @If_Dec6Perform(i64 noundef %28, i32 noundef 1)
  %30 = icmp ugt i64 %29, 0
  %31 = zext i1 %30 to i32
  %32 = call i32 (ptr, ...) @printf(ptr noundef @.str.1, i32 noundef %31)
  %33 = call i32 (ptr, ...) @printf(ptr noundef @.str.2)
  ret void
}

; Function Attrs: nounwind uwtable
define void @Lpk_TryDecTest() #0 {
  %1 = alloca i64, align 8
  %2 = alloca i64, align 8
  %3 = alloca i64, align 8
  %4 = alloca i64, align 8
  %5 = alloca [4 x i64], align 16
  call void @llvm.lifetime.start.p0(i64 8, ptr %1) #4
  store i64 5701184640487029252, ptr %1, align 8, !tbaa !54
  call void @llvm.lifetime.start.p0(i64 8, ptr %2) #4
  store i64 1206316060216060597, ptr %2, align 8, !tbaa !54
  call void @llvm.lifetime.start.p0(i64 8, ptr %3) #4
  store i64 7542205540404525587, ptr %3, align 8, !tbaa !54
  call void @llvm.lifetime.start.p0(i64 8, ptr %4) #4
  store i64 -5670350346691776787, ptr %4, align 8, !tbaa !54
  call void @llvm.lifetime.start.p0(i64 32, ptr %5) #4
  %6 = load i64, ptr %1, align 8, !tbaa !54
  store i64 %6, ptr %5, align 8, !tbaa !54
  %7 = getelementptr inbounds i64, ptr %5, i64 1
  %8 = load i64, ptr %2, align 8, !tbaa !54
  store i64 %8, ptr %7, align 8, !tbaa !54
  %9 = getelementptr inbounds i64, ptr %5, i64 2
  %10 = load i64, ptr %3, align 8, !tbaa !54
  store i64 %10, ptr %9, align 8, !tbaa !54
  %11 = getelementptr inbounds i64, ptr %5, i64 3
  %12 = load i64, ptr %4, align 8, !tbaa !54
  store i64 %12, ptr %11, align 8, !tbaa !54
  %13 = getelementptr inbounds [4 x i64], ptr %5, i64 0, i64 0
  call void @Lpk_TryDec(ptr noundef %13, i32 noundef 8)
  call void @llvm.lifetime.end.p0(i64 32, ptr %5) #4
  call void @llvm.lifetime.end.p0(i64 8, ptr %4) #4
  call void @llvm.lifetime.end.p0(i64 8, ptr %3) #4
  call void @llvm.lifetime.end.p0(i64 8, ptr %2) #4
  call void @llvm.lifetime.end.p0(i64 8, ptr %1) #4
  ret void
}