; Function Attrs: nounwind uwtable
define void @Lpk_TryDecTest() local_unnamed_addr #0 {
  %1 = tail call i64 @If_Dec6Perform(i64 noundef 5701184640487029252, i32 noundef 1) #5
  %2 = icmp ne i64 %1, 0
  %3 = zext i1 %2 to i32
  %4 = tail call i32 (ptr, ...) @printf(ptr noundef nonnull dereferenceable(1) @.str.1, i32 noundef %3)
  %5 = tail call i64 @If_Dec6Perform(i64 noundef 1206316060216060597, i32 noundef 1) #5
  %6 = icmp ne i64 %5, 0
  %7 = zext i1 %6 to i32
  %8 = tail call i32 (ptr, ...) @printf(ptr noundef nonnull dereferenceable(1) @.str.1, i32 noundef %7)
  %9 = tail call i64 @If_Dec6Perform(i64 noundef 7542205540404525587, i32 noundef 1) #5
  %10 = icmp ne i64 %9, 0
  %11 = zext i1 %10 to i32
  %12 = tail call i32 (ptr, ...) @printf(ptr noundef nonnull dereferenceable(1) @.str.1, i32 noundef %11)
  %13 = tail call i64 @If_Dec6Perform(i64 noundef -5670350346691776787, i32 noundef 1) #5
  %14 = icmp ne i64 %13, 0
  %15 = zext i1 %14 to i32
  %16 = tail call i32 (ptr, ...) @printf(ptr noundef nonnull dereferenceable(1) @.str.1, i32 noundef %15)
  %putchar.i = tail call i32 @putchar(i32 10)
  ret void
}